target datalayout = "e-m:e-p270:32:32-p271:32:32-p272:64:64-i64:64-i128:128-f80:128-n8:16:32:64-S128"
target triple = "x86_64-pc-linux-gnu"

%"class.datalog::table_signature" = type <{ %"class.datalog::tr_infrastructure<datalog::table_traits>::signature_base", i32, [4 x i8] }>
%"class.datalog::tr_infrastructure<datalog::table_traits>::signature_base" = type { %class.svector.134 }
%class.svector.134 = type { %class.vector.135 }
%class.vector.135 = type { ptr }
%"class.datalog::tr_infrastructure<datalog::table_traits>::base_ancestor" = type <{ ptr, ptr, %"class.datalog::table_signature", i32, [4 x i8] }>

; Function Attrs: mustprogress nounwind uwtable
define linkonce_odr hidden noundef nonnull align 8 dereferenceable(12) ptr @_ZNK7datalog17tr_infrastructureINS_12table_traitsEE13base_ancestor13get_signatureEv(ptr noundef nonnull align 8 dereferenceable(36) %0) #4 comdat align 2 {
  %2 = alloca ptr, align 8
  store ptr %0, ptr %2, align 8, !tbaa !377
  %3 = load ptr, ptr %2, align 8
  %4 = getelementptr inbounds nuw %"class.datalog::tr_infrastructure<datalog::table_traits>::base_ancestor", ptr %3, i32 0, i32 2
  ret ptr %4
}

; Function Attrs: mustprogress nounwind uwtable
define linkonce_odr hidden noundef nonnull align 8 dereferenceable(32) ptr @_ZNK7datalog17tr_infrastructureINS_12table_traitsEE13base_ancestor10get_pluginEv(ptr noundef nonnull align 8 dereferenceable(36) %0) #4 comdat align 2 {
  %2 = alloca ptr, align 8
  store ptr %0, ptr %2, align 8, !tbaa !377
  %3 = load ptr, ptr %2, align 8
  %4 = getelementptr inbounds nuw %"class.datalog::tr_infrastructure<datalog::table_traits>::base_ancestor", ptr %3, i32 0, i32 1
  %5 = load ptr, ptr %4, align 8, !tbaa !379
  ret ptr %5
}

; Function Attrs: mustprogress uwtable
define hidden noundef ptr @_ZN7datalog16relation_manager25mk_project_with_reduce_fnERKNS_10table_baseEjPKjPNS_24table_row_pair_reduce_fnE(ptr noundef nonnull align 8 dereferenceable(200) %0, ptr noundef nonnull align 8 dereferenceable(36) %1, i32 noundef %2, ptr noundef %3, ptr noundef %4) unnamed_addr #5 align 2 {
  %6 = alloca ptr, align 8
  %7 = alloca ptr, align 8
  %8 = alloca i32, align 4
  %9 = alloca ptr, align 8
  %10 = alloca ptr, align 8
  %11 = alloca ptr, align 8
  store ptr %0, ptr %6, align 8, !tbaa !3
  store ptr %1, ptr %7, align 8, !tbaa !375
  store i32 %2, ptr %8, align 4, !tbaa !279
  store ptr %3, ptr %9, align 8, !tbaa !286
  store ptr %4, ptr %10, align 8, !tbaa !573
  call void @llvm.lifetime.start.p0(i64 8, ptr %11) #3
  %12 = load ptr, ptr %7, align 8, !tbaa !375
  %13 = call noundef nonnull align 8 dereferenceable(32) ptr @_ZNK7datalog17tr_infrastructureINS_12table_traitsEE13base_ancestor10get_pluginEv(ptr noundef nonnull align 8 dereferenceable(36) %12)
  %14 = load ptr, ptr %7, align 8, !tbaa !375
  %15 = load i32, ptr %8, align 4, !tbaa !279
  %16 = load ptr, ptr %9, align 8, !tbaa !286
  %17 = load ptr, ptr %10, align 8, !tbaa !573
  %18 = load ptr, ptr %13, align 8, !tbaa !8
  %19 = getelementptr inbounds ptr, ptr %18, i64 26
  %20 = load ptr, ptr %19, align 8
  %21 = call noundef ptr %20(ptr noundef nonnull align 8 dereferenceable(32) %13, ptr noundef nonnull align 8 dereferenceable(36) %14, i32 noundef %15, ptr noundef %16, ptr noundef %17)
  store ptr %21, ptr %11, align 8, !tbaa !510
  %22 = load ptr, ptr %11, align 8, !tbaa !510
  %23 = icmp ne ptr %22, null
  br i1 %23, label %31, label %24

24:                                               ; preds = %5
  %25 = call noalias noundef ptr @_ZN6memory8allocateEm(i64 noundef 80)
  %26 = load ptr, ptr %7, align 8, !tbaa !375
  %27 = call noundef nonnull align 8 dereferenceable(12) ptr @_ZNK7datalog17tr_infrastructureINS_12table_traitsEE13base_ancestor13get_signatureEv(ptr noundef nonnull align 8 dereferenceable(36) %26)
  %28 = load i32, ptr %8, align 4, !tbaa !279
  %29 = load ptr, ptr %9, align 8, !tbaa !286
  %30 = load ptr, ptr %10, align 8, !tbaa !573
  call void @_ZN7datalog16relation_manager36default_table_project_with_reduce_fnC2ERKNS_15table_signatureEjPKjPNS_24table_row_pair_reduce_fnE(ptr noundef nonnull align 8 dereferenceable(80) %25, ptr noundef nonnull align 8 dereferenceable(12) %27, i32 noundef %28, ptr noundef %29, ptr noundef %30)
  store ptr %25, ptr %11, align 8, !tbaa !510
  br label %31

31:                                               ; preds = %24, %5
  %32 = load ptr, ptr %11, align 8, !tbaa !510
  call void @llvm.lifetime.end.p0(i64 8, ptr %11) #3
  ret ptr %32
}