; Function Attrs: mustprogress uwtable
define hidden noundef ptr @_ZN7datalog16relation_manager25mk_project_with_reduce_fnERKNS_10table_baseEjPKjPNS_24table_row_pair_reduce_fnE(ptr nonnull readnone align 8 captures(none) %0, ptr noundef nonnull align 8 dereferenceable(36) %1, i32 noundef %2, ptr noundef %3, ptr noundef %4) unnamed_addr #4 align 2 {
  %6 = getelementptr inbounds nuw i8, ptr %1, i64 8
  %7 = load ptr, ptr %6, align 8, !tbaa !382
  %8 = load ptr, ptr %7, align 8, !tbaa !3
  %9 = getelementptr inbounds nuw i8, ptr %8, i64 208
  %10 = load ptr, ptr %9, align 8
  %11 = tail call noundef ptr %10(ptr noundef nonnull align 8 dereferenceable(32) %7, ptr noundef nonnull align 8 dereferenceable(36) %1, i32 noundef %2, ptr noundef %3, ptr noundef %4)
  %.not = icmp eq ptr %11, null
  br i1 %.not, label %12, label %15

12:                                               ; preds = %5
  %13 = tail call noalias noundef ptr @_ZN6memory8allocateEm(i64 noundef 80)
  %14 = getelementptr inbounds nuw i8, ptr %1, i64 16
  tail call void @_ZN7datalog16relation_manager36default_table_project_with_reduce_fnC2ERKNS_15table_signatureEjPKjPNS_24table_row_pair_reduce_fnE(ptr noundef nonnull align 8 dereferenceable(80) %13, ptr noundef nonnull align 8 dereferenceable(12) %14, i32 noundef %2, ptr noundef %3, ptr noundef %4)
  br label %15

15:                                               ; preds = %12, %5
  %.0 = phi ptr [ %11, %5 ], [ %13, %12 ]
  ret ptr %.0
}